target datalayout = "e-m:e-p270:32:32-p271:32:32-p272:64:64-i64:64-i128:128-f80:128-n8:16:32:64-S128"
target triple = "x86_64-pc-linux-gnu"

%struct._object = type { %union.anon, ptr }
%union.anon = type { i64 }
%struct.PyVarObject = type { %struct._object, i64 }
%struct._typeobject = type { %struct.PyVarObject, ptr, i64, i64, ptr, i64, ptr, ptr, ptr, ptr, ptr, ptr, ptr, ptr, ptr, ptr, ptr, ptr, ptr, i64, ptr, ptr, ptr, ptr, i64, ptr, ptr, ptr, ptr, ptr, ptr, ptr, ptr, ptr, i64, ptr, ptr, ptr, ptr, ptr, ptr, ptr, ptr, ptr, ptr, ptr, i32, ptr, ptr, i8, i16 }
%struct._functools_state = type { ptr, ptr, ptr, ptr, ptr, ptr }
%struct.anon = type { i32, i32 }
%struct.PyModuleObject = type { %struct._object, ptr, ptr, ptr, ptr, ptr }
%struct.lru_cache_object = type { %struct.lru_list_elem, ptr, i32, ptr, i64, ptr, i64, i64, ptr, ptr, ptr, ptr, ptr }
%struct.lru_list_elem = type { %struct._object, ptr, ptr, i64, ptr, ptr }

@PyExc_TypeError = external global ptr, align 8
@_Py_NoneStruct = external global %struct._object, align 8
@.str.45 = private unnamed_addr constant [36 x i8] c"the first argument must be callable\00", align 1
@lru_cache_new.keywords = internal global [5 x ptr] [ptr @.str.58, ptr @.str.59, ptr @.str.60, ptr @.str.61, ptr null], align 16
@.str.62 = private unnamed_addr constant [15 x i8] c"OOpO:lru_cache\00", align 1
@PyExc_OverflowError = external global ptr, align 8
@.str.63 = private unnamed_addr constant [34 x i8] c"maxsize should be integer or None\00", align 1

; Function Attrs: inlinehint nounwind uwtable
define internal ptr @_PyModule_GetState(ptr noundef %0) #3 {
  %2 = alloca ptr, align 8
  store ptr %0, ptr %2, align 8, !tbaa !4
  %3 = load ptr, ptr %2, align 8, !tbaa !4
  %4 = getelementptr inbounds nuw %struct.PyModuleObject, ptr %3, i32 0, i32 3
  %5 = load ptr, ptr %4, align 8, !tbaa !120
  ret ptr %5
}

; Function Attrs: alwaysinline nounwind uwtable
define internal void @Py_INCREF(ptr noundef %0) #4 {
  %2 = alloca ptr, align 8
  %3 = alloca i32, align 4
  %4 = alloca i32, align 4
  store ptr %0, ptr %2, align 8, !tbaa !4
  call void @llvm.lifetime.start.p0(i64 4, ptr %3) #8
  %5 = load ptr, ptr %2, align 8, !tbaa !4
  %6 = getelementptr inbounds nuw %struct._object, ptr %5, i32 0, i32 0
  %7 = getelementptr inbounds nuw %struct.anon, ptr %6, i32 0, i32 0
  %8 = load i32, ptr %7, align 8, !tbaa !32
  store i32 %8, ptr %3, align 4, !tbaa !15
  %9 = load i32, ptr %3, align 4, !tbaa !15
  %10 = icmp slt i32 %9, 0
  br i1 %10, label %11, label %12

11:                                               ; preds = %1
  store i32 1, ptr %4, align 4
  br label %18

12:                                               ; preds = %1
  %13 = load i32, ptr %3, align 4, !tbaa !15
  %14 = add i32 %13, 1
  %15 = load ptr, ptr %2, align 8, !tbaa !4
  %16 = getelementptr inbounds nuw %struct._object, ptr %15, i32 0, i32 0
  %17 = getelementptr inbounds nuw %struct.anon, ptr %16, i32 0, i32 0
  store i32 %14, ptr %17, align 8, !tbaa !32
  store i32 0, ptr %4, align 4
  br label %18

18:                                               ; preds = %12, %11
  call void @llvm.lifetime.end.p0(i64 4, ptr %3) #8
  %19 = load i32, ptr %4, align 4
  switch i32 %19, label %21 [
    i32 0, label %20
    i32 1, label %20
  ]

20:                                               ; preds = %18, %18
  ret void

21:                                               ; preds = %18
  unreachable
}

; Function Attrs: alwaysinline nounwind uwtable
define internal i32 @_Py_IsImmortal(ptr noundef %0) #4 {
  %2 = alloca ptr, align 8
  store ptr %0, ptr %2, align 8, !tbaa !4
  %3 = load ptr, ptr %2, align 8, !tbaa !4
  %4 = getelementptr inbounds nuw %struct._object, ptr %3, i32 0, i32 0
  %5 = getelementptr inbounds nuw %struct.anon, ptr %4, i32 0, i32 0
  %6 = load i32, ptr %5, align 8, !tbaa !32
  %7 = icmp slt i32 %6, 0
  %8 = zext i1 %7 to i32
  ret i32 %8
}

; Function Attrs: inlinehint nounwind uwtable
define internal ptr @get_functools_state(ptr noundef %0) #3 {
  %2 = alloca ptr, align 8
  %3 = alloca ptr, align 8
  store ptr %0, ptr %2, align 8, !tbaa !4
  call void @llvm.lifetime.start.p0(i64 8, ptr %3) #8
  %4 = load ptr, ptr %2, align 8, !tbaa !4
  %5 = call ptr @_PyModule_GetState(ptr noundef %4)
  store ptr %5, ptr %3, align 8, !tbaa !9
  %6 = load ptr, ptr %3, align 8, !tbaa !9
  call void @llvm.lifetime.end.p0(i64 8, ptr %3) #8
  ret ptr %6
}

; Function Attrs: inlinehint nounwind uwtable
define internal ptr @_Py_NewRef(ptr noundef %0) #3 {
  %2 = alloca ptr, align 8
  store ptr %0, ptr %2, align 8, !tbaa !4
  %3 = load ptr, ptr %2, align 8, !tbaa !4
  call void @Py_INCREF(ptr noundef %3)
  %4 = load ptr, ptr %2, align 8, !tbaa !4
  ret ptr %4
}

; Function Attrs: alwaysinline nounwind uwtable
define internal void @Py_DECREF(ptr noundef %0) #4 {
  %2 = alloca ptr, align 8
  store ptr %0, ptr %2, align 8, !tbaa !4
  %3 = load ptr, ptr %2, align 8, !tbaa !4
  %4 = call i32 @_Py_IsImmortal(ptr noundef %3)
  %5 = icmp ne i32 %4, 0
  br i1 %5, label %6, label %7

6:                                                ; preds = %1
  br label %16

7:                                                ; preds = %1
  %8 = load ptr, ptr %2, align 8, !tbaa !4
  %9 = getelementptr inbounds nuw %struct._object, ptr %8, i32 0, i32 0
  %10 = getelementptr inbounds nuw %struct.anon, ptr %9, i32 0, i32 0
  %11 = load i32, ptr %10, align 8, !tbaa !32
  %12 = add i32 %11, -1
  store i32 %12, ptr %10, align 8, !tbaa !32
  %13 = icmp eq i32 %12, 0
  br i1 %13, label %14, label %16

14:                                               ; preds = %7
  %15 = load ptr, ptr %2, align 8, !tbaa !4
  call void @_Py_Dealloc(ptr noundef %15)
  br label %16

16:                                               ; preds = %6, %14, %7
  ret void
}

; Function Attrs: inlinehint nounwind uwtable
define internal ptr @get_functools_state_by_type(ptr noundef %0) #3 {
  %2 = alloca ptr, align 8
  %3 = alloca ptr, align 8
  %4 = alloca ptr, align 8
  %5 = alloca i32, align 4
  store ptr %0, ptr %3, align 8, !tbaa !26
  call void @llvm.lifetime.start.p0(i64 8, ptr %4) #8
  %6 = load ptr, ptr %3, align 8, !tbaa !26
  %7 = call ptr @PyType_GetModuleByDef(ptr noundef %6, ptr noundef @_functools_module)
  store ptr %7, ptr %4, align 8, !tbaa !4
  %8 = load ptr, ptr %4, align 8, !tbaa !4
  %9 = icmp eq ptr %8, null
  br i1 %9, label %10, label %11

10:                                               ; preds = %1
  store ptr null, ptr %2, align 8
  store i32 1, ptr %5, align 4
  br label %14

11:                                               ; preds = %1
  %12 = load ptr, ptr %4, align 8, !tbaa !4
  %13 = call ptr @get_functools_state(ptr noundef %12)
  store ptr %13, ptr %2, align 8
  store i32 1, ptr %5, align 4
  br label %14

14:                                               ; preds = %11, %10
  call void @llvm.lifetime.end.p0(i64 8, ptr %4) #8
  %15 = load ptr, ptr %2, align 8
  ret ptr %15
}

; Function Attrs: nounwind uwtable
define internal ptr @lru_cache_new(ptr noundef %0, ptr noundef %1, ptr noundef %2) #0 {
  %4 = alloca ptr, align 8
  %5 = alloca ptr, align 8
  %6 = alloca ptr, align 8
  %7 = alloca ptr, align 8
  %8 = alloca ptr, align 8
  %9 = alloca ptr, align 8
  %10 = alloca ptr, align 8
  %11 = alloca ptr, align 8
  %12 = alloca i32, align 4
  %13 = alloca ptr, align 8
  %14 = alloca i64, align 8
  %15 = alloca ptr, align 8
  %16 = alloca ptr, align 8
  %17 = alloca i32, align 4
  store ptr %0, ptr %5, align 8, !tbaa !26
  store ptr %1, ptr %6, align 8, !tbaa !4
  store ptr %2, ptr %7, align 8, !tbaa !4
  call void @llvm.lifetime.start.p0(i64 8, ptr %8) #8
  call void @llvm.lifetime.start.p0(i64 8, ptr %9) #8
  call void @llvm.lifetime.start.p0(i64 8, ptr %10) #8
  call void @llvm.lifetime.start.p0(i64 8, ptr %11) #8
  call void @llvm.lifetime.start.p0(i64 4, ptr %12) #8
  call void @llvm.lifetime.start.p0(i64 8, ptr %13) #8
  call void @llvm.lifetime.start.p0(i64 8, ptr %14) #8
  call void @llvm.lifetime.start.p0(i64 8, ptr %15) #8
  call void @llvm.lifetime.start.p0(i64 8, ptr %16) #8
  %18 = load ptr, ptr %6, align 8, !tbaa !4
  %19 = load ptr, ptr %7, align 8, !tbaa !4
  %20 = call i32 (ptr, ptr, ptr, ptr, ...) @PyArg_ParseTupleAndKeywords(ptr noundef %18, ptr noundef %19, ptr noundef @.str.62, ptr noundef @lru_cache_new.keywords, ptr noundef %8, ptr noundef %9, ptr noundef %12, ptr noundef %10)
  %21 = icmp ne i32 %20, 0
  br i1 %21, label %23, label %22

22:                                               ; preds = %3
  store ptr null, ptr %4, align 8
  store i32 1, ptr %17, align 4
  br label %132

23:                                               ; preds = %3
  %24 = load ptr, ptr %8, align 8, !tbaa !4
  %25 = call i32 @PyCallable_Check(ptr noundef %24)
  %26 = icmp ne i32 %25, 0
  br i1 %26, label %29, label %27

27:                                               ; preds = %23
  %28 = load ptr, ptr @PyExc_TypeError, align 8, !tbaa !4
  call void @PyErr_SetString(ptr noundef %28, ptr noundef @.str.45)
  store ptr null, ptr %4, align 8
  store i32 1, ptr %17, align 4
  br label %132

29:                                               ; preds = %23
  %30 = load ptr, ptr %5, align 8, !tbaa !26
  %31 = call ptr @get_functools_state_by_type(ptr noundef %30)
  store ptr %31, ptr %16, align 8, !tbaa !10
  %32 = load ptr, ptr %16, align 8, !tbaa !10
  %33 = icmp eq ptr %32, null
  br i1 %33, label %34, label %35

34:                                               ; preds = %29
  store ptr null, ptr %4, align 8
  store i32 1, ptr %17, align 4
  br label %132

35:                                               ; preds = %29
  %36 = load ptr, ptr %9, align 8, !tbaa !4
  %37 = icmp eq ptr %36, @_Py_NoneStruct
  br i1 %37, label %38, label %39

38:                                               ; preds = %35
  store ptr @infinite_lru_cache_wrapper, ptr %15, align 8, !tbaa !9
  store i64 -1, ptr %14, align 8, !tbaa !27
  br label %66

39:                                               ; preds = %35
  %40 = load ptr, ptr %9, align 8, !tbaa !4
  %41 = call i32 @PyIndex_Check(ptr noundef %40)
  %42 = icmp ne i32 %41, 0
  br i1 %42, label %43, label %63

43:                                               ; preds = %39
  %44 = load ptr, ptr %9, align 8, !tbaa !4
  %45 = load ptr, ptr @PyExc_OverflowError, align 8, !tbaa !4
  %46 = call i64 @PyNumber_AsSsize_t(ptr noundef %44, ptr noundef %45)
  store i64 %46, ptr %14, align 8, !tbaa !27
  %47 = load i64, ptr %14, align 8, !tbaa !27
  %48 = icmp eq i64 %47, -1
  br i1 %48, label %49, label %53

49:                                               ; preds = %43
  %50 = call ptr @PyErr_Occurred()
  %51 = icmp ne ptr %50, null
  br i1 %51, label %52, label %53

52:                                               ; preds = %49
  store ptr null, ptr %4, align 8
  store i32 1, ptr %17, align 4
  br label %132

53:                                               ; preds = %49, %43
  %54 = load i64, ptr %14, align 8, !tbaa !27
  %55 = icmp slt i64 %54, 0
  br i1 %55, label %56, label %57

56:                                               ; preds = %53
  store i64 0, ptr %14, align 8, !tbaa !27
  br label %57

57:                                               ; preds = %56, %53
  %58 = load i64, ptr %14, align 8, !tbaa !27
  %59 = icmp eq i64 %58, 0
  br i1 %59, label %60, label %61

60:                                               ; preds = %57
  store ptr @uncached_lru_cache_wrapper, ptr %15, align 8, !tbaa !9
  br label %62

61:                                               ; preds = %57
  store ptr @bounded_lru_cache_wrapper, ptr %15, align 8, !tbaa !9
  br label %62

62:                                               ; preds = %61, %60
  br label %65

63:                                               ; preds = %39
  %64 = load ptr, ptr @PyExc_TypeError, align 8, !tbaa !4
  call void @PyErr_SetString(ptr noundef %64, ptr noundef @.str.63)
  store ptr null, ptr %4, align 8
  store i32 1, ptr %17, align 4
  br label %132

65:                                               ; preds = %62
  br label %66

66:                                               ; preds = %65, %38
  %67 = call ptr @PyDict_New()
  store ptr %67, ptr %11, align 8, !tbaa !4
  %68 = icmp ne ptr %67, null
  br i1 %68, label %70, label %69

69:                                               ; preds = %66
  store ptr null, ptr %4, align 8
  store i32 1, ptr %17, align 4
  br label %132

70:                                               ; preds = %66
  %71 = load ptr, ptr %5, align 8, !tbaa !26
  %72 = getelementptr inbounds nuw %struct._typeobject, ptr %71, i32 0, i32 36
  %73 = load ptr, ptr %72, align 8, !tbaa !149
  %74 = load ptr, ptr %5, align 8, !tbaa !26
  %75 = call ptr %73(ptr noundef %74, i64 noundef 0)
  store ptr %75, ptr %13, align 8, !tbaa !155
  %76 = load ptr, ptr %13, align 8, !tbaa !155
  %77 = icmp eq ptr %76, null
  br i1 %77, label %78, label %80

78:                                               ; preds = %70
  %79 = load ptr, ptr %11, align 8, !tbaa !4
  call void @Py_DECREF(ptr noundef %79)
  store ptr null, ptr %4, align 8
  store i32 1, ptr %17, align 4
  br label %132

80:                                               ; preds = %70
  %81 = load ptr, ptr %13, align 8, !tbaa !155
  %82 = getelementptr inbounds nuw %struct.lru_cache_object, ptr %81, i32 0, i32 0
  %83 = load ptr, ptr %13, align 8, !tbaa !155
  %84 = getelementptr inbounds nuw %struct.lru_cache_object, ptr %83, i32 0, i32 0
  %85 = getelementptr inbounds nuw %struct.lru_list_elem, ptr %84, i32 0, i32 1
  store ptr %82, ptr %85, align 8, !tbaa !174
  %86 = load ptr, ptr %13, align 8, !tbaa !155
  %87 = getelementptr inbounds nuw %struct.lru_cache_object, ptr %86, i32 0, i32 0
  %88 = load ptr, ptr %13, align 8, !tbaa !155
  %89 = getelementptr inbounds nuw %struct.lru_cache_object, ptr %88, i32 0, i32 0
  %90 = getelementptr inbounds nuw %struct.lru_list_elem, ptr %89, i32 0, i32 2
  store ptr %87, ptr %90, align 8, !tbaa !162
  %91 = load ptr, ptr %15, align 8, !tbaa !9
  %92 = load ptr, ptr %13, align 8, !tbaa !155
  %93 = getelementptr inbounds nuw %struct.lru_cache_object, ptr %92, i32 0, i32 1
  store ptr %91, ptr %93, align 8, !tbaa !161
  %94 = load i32, ptr %12, align 4, !tbaa !15
  %95 = load ptr, ptr %13, align 8, !tbaa !155
  %96 = getelementptr inbounds nuw %struct.lru_cache_object, ptr %95, i32 0, i32 2
  store i32 %94, ptr %96, align 8, !tbaa !175
  %97 = load ptr, ptr %11, align 8, !tbaa !4
  %98 = load ptr, ptr %13, align 8, !tbaa !155
  %99 = getelementptr inbounds nuw %struct.lru_cache_object, ptr %98, i32 0, i32 3
  store ptr %97, ptr %99, align 8, !tbaa !168
  %100 = load ptr, ptr %8, align 8, !tbaa !4
  %101 = call ptr @_Py_NewRef(ptr noundef %100)
  %102 = load ptr, ptr %13, align 8, !tbaa !155
  %103 = getelementptr inbounds nuw %struct.lru_cache_object, ptr %102, i32 0, i32 5
  store ptr %101, ptr %103, align 8, !tbaa !169
  %104 = load ptr, ptr %13, align 8, !tbaa !155
  %105 = getelementptr inbounds nuw %struct.lru_cache_object, ptr %104, i32 0, i32 4
  store i64 0, ptr %105, align 8, !tbaa !176
  %106 = load ptr, ptr %13, align 8, !tbaa !155
  %107 = getelementptr inbounds nuw %struct.lru_cache_object, ptr %106, i32 0, i32 7
  store i64 0, ptr %107, align 8, !tbaa !177
  %108 = load i64, ptr %14, align 8, !tbaa !27
  %109 = load ptr, ptr %13, align 8, !tbaa !155
  %110 = getelementptr inbounds nuw %struct.lru_cache_object, ptr %109, i32 0, i32 6
  store i64 %108, ptr %110, align 8, !tbaa !178
  %111 = load ptr, ptr %16, align 8, !tbaa !10
  %112 = getelementptr inbounds nuw %struct._functools_state, ptr %111, i32 0, i32 0
  %113 = load ptr, ptr %112, align 8, !tbaa !12
  %114 = call ptr @_Py_NewRef(ptr noundef %113)
  %115 = load ptr, ptr %13, align 8, !tbaa !155
  %116 = getelementptr inbounds nuw %struct.lru_cache_object, ptr %115, i32 0, i32 8
  store ptr %114, ptr %116, align 8, !tbaa !170
  %117 = load ptr, ptr %16, align 8, !tbaa !10
  %118 = getelementptr inbounds nuw %struct._functools_state, ptr %117, i32 0, i32 5
  %119 = load ptr, ptr %118, align 8, !tbaa !21
  %120 = call ptr @_Py_NewRef(ptr noundef %119)
  %121 = load ptr, ptr %13, align 8, !tbaa !155
  %122 = getelementptr inbounds nuw %struct.lru_cache_object, ptr %121, i32 0, i32 9
  store ptr %120, ptr %122, align 8, !tbaa !171
  %123 = load ptr, ptr %10, align 8, !tbaa !4
  %124 = call ptr @_Py_NewRef(ptr noundef %123)
  %125 = load ptr, ptr %13, align 8, !tbaa !155
  %126 = getelementptr inbounds nuw %struct.lru_cache_object, ptr %125, i32 0, i32 10
  store ptr %124, ptr %126, align 8, !tbaa !172
  %127 = load ptr, ptr %13, align 8, !tbaa !155
  %128 = getelementptr inbounds nuw %struct.lru_cache_object, ptr %127, i32 0, i32 11
  store ptr null, ptr %128, align 8, !tbaa !173
  %129 = load ptr, ptr %13, align 8, !tbaa !155
  %130 = getelementptr inbounds nuw %struct.lru_cache_object, ptr %129, i32 0, i32 12
  store ptr null, ptr %130, align 8, !tbaa !157
  %131 = load ptr, ptr %13, align 8, !tbaa !155
  store ptr %131, ptr %4, align 8
  store i32 1, ptr %17, align 4
  br label %132

132:                                              ; preds = %80, %78, %69, %63, %52, %34, %27, %22
  call void @llvm.lifetime.end.p0(i64 8, ptr %16) #8
  call void @llvm.lifetime.end.p0(i64 8, ptr %15) #8
  call void @llvm.lifetime.end.p0(i64 8, ptr %14) #8
  call void @llvm.lifetime.end.p0(i64 8, ptr %13) #8
  call void @llvm.lifetime.end.p0(i64 4, ptr %12) #8
  call void @llvm.lifetime.end.p0(i64 8, ptr %11) #8
  call void @llvm.lifetime.end.p0(i64 8, ptr %10) #8
  call void @llvm.lifetime.end.p0(i64 8, ptr %9) #8
  call void @llvm.lifetime.end.p0(i64 8, ptr %8) #8
  %133 = load ptr, ptr %4, align 8
  ret ptr %133
}