; Function Attrs: nounwind uwtable
define internal ptr @lru_cache_new(ptr noundef %0, ptr noundef %1, ptr noundef %2) #0 {
  %4 = alloca ptr, align 8
  %5 = alloca ptr, align 8
  %6 = alloca ptr, align 8
  %7 = alloca i32, align 4
  call void @llvm.lifetime.start.p0(i64 8, ptr nonnull %4) #9
  call void @llvm.lifetime.start.p0(i64 8, ptr nonnull %5) #9
  call void @llvm.lifetime.start.p0(i64 8, ptr nonnull %6) #9
  call void @llvm.lifetime.start.p0(i64 4, ptr nonnull %7) #9
  %8 = call i32 (ptr, ptr, ptr, ptr, ...) @PyArg_ParseTupleAndKeywords(ptr noundef %1, ptr noundef %2, ptr noundef nonnull @.str.62, ptr noundef nonnull @lru_cache_new.keywords, ptr noundef nonnull %4, ptr noundef nonnull %5, ptr noundef nonnull %7, ptr noundef nonnull %6) #9
  %.not = icmp eq i32 %8, 0
  br i1 %.not, label %Py_DECREF.exit, label %9

9:                                                ; preds = %3
  %10 = load ptr, ptr %4, align 8, !tbaa !20
  %11 = call i32 @PyCallable_Check(ptr noundef %10) #9
  %.not39 = icmp eq i32 %11, 0
  br i1 %.not39, label %12, label %14

12:                                               ; preds = %9
  %13 = load ptr, ptr @PyExc_TypeError, align 8, !tbaa !20
  call void @PyErr_SetString(ptr noundef %13, ptr noundef nonnull @.str.45) #9
  br label %Py_DECREF.exit

14:                                               ; preds = %9
  %15 = call ptr @PyType_GetModuleByDef(ptr noundef %0, ptr noundef nonnull @_functools_module) #9
  %16 = icmp eq ptr %15, null
  br i1 %16, label %Py_DECREF.exit, label %get_functools_state_by_type.exit

get_functools_state_by_type.exit:                 ; preds = %14
  %17 = getelementptr i8, ptr %15, i64 32
  %.val.i = load ptr, ptr %17, align 8, !tbaa !4
  %18 = icmp eq ptr %.val.i, null
  br i1 %18, label %Py_DECREF.exit, label %19

19:                                               ; preds = %get_functools_state_by_type.exit
  %20 = load ptr, ptr %5, align 8, !tbaa !20
  %21 = icmp eq ptr %20, @_Py_NoneStruct
  br i1 %21, label %35, label %22

22:                                               ; preds = %19
  %23 = call i32 @PyIndex_Check(ptr noundef %20) #9
  %.not40 = icmp eq i32 %23, 0
  br i1 %.not40, label %33, label %24

24:                                               ; preds = %22
  %25 = load ptr, ptr %5, align 8, !tbaa !20
  %26 = load ptr, ptr @PyExc_OverflowError, align 8, !tbaa !20
  %27 = call i64 @PyNumber_AsSsize_t(ptr noundef %25, ptr noundef %26) #9
  %28 = icmp eq i64 %27, -1
  br i1 %28, label %29, label %31

29:                                               ; preds = %24
  %30 = call ptr @PyErr_Occurred() #9
  %.not41 = icmp eq ptr %30, null
  br i1 %.not41, label %31, label %Py_DECREF.exit

31:                                               ; preds = %29, %24
  %32 = icmp slt i64 %27, 1
  %. = select i1 %32, i64 0, i64 %27
  %uncached_lru_cache_wrapper.bounded_lru_cache_wrapper = select i1 %32, ptr @uncached_lru_cache_wrapper, ptr @bounded_lru_cache_wrapper
  br label %35

33:                                               ; preds = %22
  %34 = load ptr, ptr @PyExc_TypeError, align 8, !tbaa !20
  call void @PyErr_SetString(ptr noundef %34, ptr noundef nonnull @.str.63) #9
  br label %Py_DECREF.exit

35:                                               ; preds = %31, %19
  %.034 = phi i64 [ -1, %19 ], [ %., %31 ]
  %.033 = phi ptr [ @infinite_lru_cache_wrapper, %19 ], [ %uncached_lru_cache_wrapper.bounded_lru_cache_wrapper, %31 ]
  %36 = call ptr @PyDict_New() #9
  %.not42 = icmp eq ptr %36, null
  br i1 %.not42, label %Py_DECREF.exit, label %37

37:                                               ; preds = %35
  %38 = getelementptr inbounds nuw i8, ptr %0, i64 304
  %39 = load ptr, ptr %38, align 8, !tbaa !140
  %40 = call ptr %39(ptr noundef %0, i64 noundef 0) #9
  %41 = icmp eq ptr %40, null
  br i1 %41, label %42, label %48

42:                                               ; preds = %37
  %43 = load i32, ptr %36, align 8, !tbaa !21
  %.not.i = icmp sgt i32 %43, -1
  br i1 %.not.i, label %44, label %Py_DECREF.exit

44:                                               ; preds = %42
  %45 = add nsw i32 %43, -1
  store i32 %45, ptr %36, align 8, !tbaa !21
  %46 = icmp eq i32 %45, 0
  br i1 %46, label %47, label %Py_DECREF.exit

47:                                               ; preds = %44
  call void @_Py_Dealloc(ptr noundef nonnull %36) #9
  br label %Py_DECREF.exit

48:                                               ; preds = %37
  %49 = getelementptr inbounds nuw i8, ptr %40, i64 16
  store ptr %40, ptr %49, align 8, !tbaa !164
  %50 = getelementptr inbounds nuw i8, ptr %40, i64 24
  store ptr %40, ptr %50, align 8, !tbaa !151
  %51 = getelementptr inbounds nuw i8, ptr %40, i64 56
  store ptr %.033, ptr %51, align 8, !tbaa !150
  %52 = load i32, ptr %7, align 4, !tbaa !165
  %53 = getelementptr inbounds nuw i8, ptr %40, i64 64
  store i32 %52, ptr %53, align 8, !tbaa !166
  %54 = getelementptr inbounds nuw i8, ptr %40, i64 72
  store ptr %36, ptr %54, align 8, !tbaa !156
  %55 = load ptr, ptr %4, align 8, !tbaa !20
  %56 = load i32, ptr %55, align 8, !tbaa !21
  %57 = icmp slt i32 %56, 0
  br i1 %57, label %_Py_NewRef.exit, label %58

58:                                               ; preds = %48
  %59 = add nuw i32 %56, 1
  store i32 %59, ptr %55, align 8, !tbaa !21
  br label %_Py_NewRef.exit

_Py_NewRef.exit:                                  ; preds = %48, %58
  %60 = getelementptr inbounds nuw i8, ptr %40, i64 88
  store ptr %55, ptr %60, align 8, !tbaa !157
  %61 = getelementptr inbounds nuw i8, ptr %40, i64 80
  store i64 0, ptr %61, align 8, !tbaa !167
  %62 = getelementptr inbounds nuw i8, ptr %40, i64 104
  store i64 0, ptr %62, align 8, !tbaa !168
  %63 = getelementptr inbounds nuw i8, ptr %40, i64 96
  store i64 %.034, ptr %63, align 8, !tbaa !169
  %64 = load ptr, ptr %.val.i, align 8, !tbaa !13
  %65 = load i32, ptr %64, align 8, !tbaa !21
  %66 = icmp slt i32 %65, 0
  br i1 %66, label %_Py_NewRef.exit43, label %67

67:                                               ; preds = %_Py_NewRef.exit
  %68 = add nuw i32 %65, 1
  store i32 %68, ptr %64, align 8, !tbaa !21
  br label %_Py_NewRef.exit43

_Py_NewRef.exit43:                                ; preds = %_Py_NewRef.exit, %67
  %69 = getelementptr inbounds nuw i8, ptr %40, i64 112
  store ptr %64, ptr %69, align 8, !tbaa !158
  %70 = getelementptr inbounds nuw i8, ptr %.val.i, i64 40
  %71 = load ptr, ptr %70, align 8, !tbaa !19
  %72 = load i32, ptr %71, align 8, !tbaa !21
  %73 = icmp slt i32 %72, 0
  br i1 %73, label %_Py_NewRef.exit44, label %74

74:                                               ; preds = %_Py_NewRef.exit43
  %75 = add nuw i32 %72, 1
  store i32 %75, ptr %71, align 8, !tbaa !21
  br label %_Py_NewRef.exit44

_Py_NewRef.exit44:                                ; preds = %_Py_NewRef.exit43, %74
  %76 = getelementptr inbounds nuw i8, ptr %40, i64 120
  store ptr %71, ptr %76, align 8, !tbaa !159
  %77 = load ptr, ptr %6, align 8, !tbaa !20
  %78 = load i32, ptr %77, align 8, !tbaa !21
  %79 = icmp slt i32 %78, 0
  br i1 %79, label %_Py_NewRef.exit45, label %80

80:                                               ; preds = %_Py_NewRef.exit44
  %81 = add nuw i32 %78, 1
  store i32 %81, ptr %77, align 8, !tbaa !21
  br label %_Py_NewRef.exit45

_Py_NewRef.exit45:                                ; preds = %_Py_NewRef.exit44, %80
  %82 = getelementptr inbounds nuw i8, ptr %40, i64 128
  store ptr %77, ptr %82, align 8, !tbaa !160
  %83 = getelementptr inbounds nuw i8, ptr %40, i64 136
  call void @llvm.memset.p0.i64(ptr noundef nonnull align 8 dereferenceable(16) %83, i8 0, i64 16, i1 false)
  br label %Py_DECREF.exit

Py_DECREF.exit:                                   ; preds = %14, %47, %44, %42, %35, %29, %get_functools_state_by_type.exit, %3, %_Py_NewRef.exit45, %33, %12
  %.0 = phi ptr [ %40, %_Py_NewRef.exit45 ], [ null, %33 ], [ null, %12 ], [ null, %3 ], [ null, %get_functools_state_by_type.exit ], [ null, %29 ], [ null, %35 ], [ null, %42 ], [ null, %44 ], [ null, %47 ], [ null, %14 ]
  call void @llvm.lifetime.end.p0(i64 4, ptr nonnull %7) #9
  call void @llvm.lifetime.end.p0(i64 8, ptr nonnull %6) #9
  call void @llvm.lifetime.end.p0(i64 8, ptr nonnull %5) #9
  call void @llvm.lifetime.end.p0(i64 8, ptr nonnull %4) #9
  ret ptr %.0
}